target datalayout = "e-m:e-p270:32:32-p271:32:32-p272:64:64-i64:64-i128:128-f80:128-n8:16:32:64-S128"
target triple = "x86_64-pc-linux-gnu"

%struct.AVProbeData = type { ptr, ptr, i32, ptr }

; Function Attrs: alwaysinline nounwind willreturn memory(none) uwtable
define internal i32 @av_bswap32(i32 noundef %0) #10 {
  %2 = alloca i32, align 4
  store i32 %0, ptr %2, align 4, !tbaa !28
  %3 = load i32, ptr %2, align 4, !tbaa !28
  %4 = shl i32 %3, 8
  %5 = and i32 %4, 65280
  %6 = load i32, ptr %2, align 4, !tbaa !28
  %7 = lshr i32 %6, 8
  %8 = and i32 %7, 255
  %9 = or i32 %5, %8
  %10 = shl i32 %9, 16
  %11 = load i32, ptr %2, align 4, !tbaa !28
  %12 = lshr i32 %11, 16
  %13 = shl i32 %12, 8
  %14 = and i32 %13, 65280
  %15 = load i32, ptr %2, align 4, !tbaa !28
  %16 = lshr i32 %15, 16
  %17 = lshr i32 %16, 8
  %18 = and i32 %17, 255
  %19 = or i32 %14, %18
  %20 = or i32 %10, %19
  ret i32 %20
}

; Function Attrs: alwaysinline nounwind willreturn memory(none) uwtable
define internal zeroext i16 @av_bswap16(i16 noundef zeroext %0) #10 {
  %2 = alloca i16, align 2
  store i16 %0, ptr %2, align 2, !tbaa !146
  %3 = load i16, ptr %2, align 2, !tbaa !146
  %4 = zext i16 %3 to i32
  %5 = ashr i32 %4, 8
  %6 = load i16, ptr %2, align 2, !tbaa !146
  %7 = zext i16 %6 to i32
  %8 = shl i32 %7, 8
  %9 = or i32 %5, %8
  %10 = trunc i32 %9 to i16
  store i16 %10, ptr %2, align 2, !tbaa !146
  %11 = load i16, ptr %2, align 2, !tbaa !146
  ret i16 %11
}

; Function Attrs: inlinehint nounwind willreturn memory(none) uwtable
define internal i64 @av_bswap64(i64 noundef %0) #11 {
  %2 = alloca i64, align 8
  store i64 %0, ptr %2, align 8, !tbaa !106
  %3 = load i64, ptr %2, align 8, !tbaa !106
  %4 = trunc i64 %3 to i32
  %5 = call i32 @av_bswap32(i32 noundef %4) #15
  %6 = zext i32 %5 to i64
  %7 = shl i64 %6, 32
  %8 = load i64, ptr %2, align 8, !tbaa !106
  %9 = lshr i64 %8, 32
  %10 = trunc i64 %9 to i32
  %11 = call i32 @av_bswap32(i32 noundef %10) #15
  %12 = zext i32 %11 to i64
  %13 = or i64 %7, %12
  ret i64 %13
}

; Function Attrs: nounwind uwtable
define internal i32 @qdraw_probe(ptr noundef %0) #0 {
  %2 = alloca i32, align 4
  %3 = alloca ptr, align 8
  %4 = alloca ptr, align 8
  %5 = alloca i32, align 4
  store ptr %0, ptr %3, align 8, !tbaa !139
  call void @llvm.lifetime.start.p0(i64 8, ptr %4) #12
  %6 = load ptr, ptr %3, align 8, !tbaa !139
  %7 = getelementptr inbounds nuw %struct.AVProbeData, ptr %6, i32 0, i32 1
  %8 = load ptr, ptr %7, align 8, !tbaa !96
  store ptr %8, ptr %4, align 8, !tbaa !76
  %9 = load ptr, ptr %3, align 8, !tbaa !139
  %10 = getelementptr inbounds nuw %struct.AVProbeData, ptr %9, i32 0, i32 2
  %11 = load i32, ptr %10, align 8, !tbaa !97
  %12 = icmp sge i32 %11, 528
  br i1 %12, label %13, label %35

13:                                               ; preds = %1
  %14 = load ptr, ptr %4, align 8, !tbaa !76
  %15 = getelementptr inbounds i8, ptr %14, i64 520
  %16 = load i64, ptr %15, align 1, !tbaa !77
  %17 = call i64 @av_bswap64(i64 noundef %16) #15
  %18 = and i64 %17, 281474976710655
  %19 = icmp eq i64 %18, 73064713216
  br i1 %19, label %20, label %35

20:                                               ; preds = %13
  %21 = load ptr, ptr %4, align 8, !tbaa !76
  %22 = getelementptr inbounds i8, ptr %21, i64 520
  %23 = load i16, ptr %22, align 1, !tbaa !77
  %24 = call zeroext i16 @av_bswap16(i16 noundef zeroext %23) #15
  %25 = zext i16 %24 to i32
  %26 = icmp ne i32 %25, 0
  br i1 %26, label %27, label %35

27:                                               ; preds = %20
  %28 = load ptr, ptr %4, align 8, !tbaa !76
  %29 = getelementptr inbounds i8, ptr %28, i64 518
  %30 = load i16, ptr %29, align 1, !tbaa !77
  %31 = call zeroext i16 @av_bswap16(i16 noundef zeroext %30) #15
  %32 = zext i16 %31 to i32
  %33 = icmp ne i32 %32, 0
  br i1 %33, label %34, label %35

34:                                               ; preds = %27
  store i32 75, ptr %2, align 4
  store i32 1, ptr %5, align 4
  br label %58

35:                                               ; preds = %27, %20, %13, %1
  %36 = load ptr, ptr %4, align 8, !tbaa !76
  %37 = getelementptr inbounds i8, ptr %36, i64 8
  %38 = load i64, ptr %37, align 1, !tbaa !77
  %39 = call i64 @av_bswap64(i64 noundef %38) #15
  %40 = and i64 %39, 281474976710655
  %41 = icmp eq i64 %40, 73064713216
  br i1 %41, label %42, label %57

42:                                               ; preds = %35
  %43 = load ptr, ptr %4, align 8, !tbaa !76
  %44 = getelementptr inbounds i8, ptr %43, i64 8
  %45 = load i16, ptr %44, align 1, !tbaa !77
  %46 = call zeroext i16 @av_bswap16(i16 noundef zeroext %45) #15
  %47 = zext i16 %46 to i32
  %48 = icmp ne i32 %47, 0
  br i1 %48, label %49, label %57

49:                                               ; preds = %42
  %50 = load ptr, ptr %4, align 8, !tbaa !76
  %51 = getelementptr inbounds i8, ptr %50, i64 6
  %52 = load i16, ptr %51, align 1, !tbaa !77
  %53 = call zeroext i16 @av_bswap16(i16 noundef zeroext %52) #15
  %54 = zext i16 %53 to i32
  %55 = icmp ne i32 %54, 0
  br i1 %55, label %56, label %57

56:                                               ; preds = %49
  store i32 12, ptr %2, align 4
  store i32 1, ptr %5, align 4
  br label %58

57:                                               ; preds = %49, %42, %35
  store i32 0, ptr %2, align 4
  store i32 1, ptr %5, align 4
  br label %58

58:                                               ; preds = %57, %56, %34
  call void @llvm.lifetime.end.p0(i64 8, ptr %4) #12
  %59 = load i32, ptr %2, align 4
  ret i32 %59
}