; Function Attrs: mustprogress nofree norecurse nosync nounwind willreturn memory(read, inaccessiblemem: none) uwtable
define internal range(i32 0, 76) i32 @qdraw_probe(ptr noundef readonly captures(none) %0) #8 {
  %2 = getelementptr inbounds nuw i8, ptr %0, i64 8
  %3 = load ptr, ptr %2, align 8, !tbaa !90
  %4 = getelementptr inbounds nuw i8, ptr %0, i64 16
  %5 = load i32, ptr %4, align 8, !tbaa !91
  %6 = icmp sgt i32 %5, 527
  br i1 %6, label %7, label %16

7:                                                ; preds = %1
  %8 = getelementptr inbounds nuw i8, ptr %3, i64 520
  %9 = load i64, ptr %8, align 1
  %10 = and i64 %9, -65536
  %11 = icmp ne i64 %10, 3658084060758016
  %12 = and i64 %9, 65535
  %.not = icmp eq i64 %12, 0
  %or.cond = or i1 %11, %.not
  br i1 %or.cond, label %16, label %13

13:                                               ; preds = %7
  %14 = getelementptr inbounds nuw i8, ptr %3, i64 518
  %15 = load i16, ptr %14, align 1, !tbaa !68
  %.not8 = icmp eq i16 %15, 0
  br i1 %.not8, label %16, label %26

16:                                               ; preds = %13, %7, %1
  %17 = getelementptr inbounds nuw i8, ptr %3, i64 8
  %18 = load i64, ptr %17, align 1
  %19 = and i64 %18, -65536
  %20 = icmp ne i64 %19, 3658084060758016
  %21 = and i64 %18, 65535
  %.not9 = icmp eq i64 %21, 0
  %or.cond11 = or i1 %20, %.not9
  br i1 %or.cond11, label %25, label %22

22:                                               ; preds = %16
  %23 = getelementptr inbounds nuw i8, ptr %3, i64 6
  %24 = load i16, ptr %23, align 1, !tbaa !68
  %.not10 = icmp eq i16 %24, 0
  br i1 %.not10, label %25, label %26

25:                                               ; preds = %22, %16
  br label %26

26:                                               ; preds = %22, %13, %25
  %.0 = phi i32 [ 0, %25 ], [ 75, %13 ], [ 12, %22 ]
  ret i32 %.0
}